target datalayout = "e-m:e-p270:32:32-p271:32:32-p272:64:64-i64:64-i128:128-f80:128-n8:16:32:64-S128"
target triple = "x86_64-pc-linux-gnu"

%struct.mbedtls_ecp_group = type { i32, %struct.mbedtls_mpi, %struct.mbedtls_mpi, %struct.mbedtls_mpi, %struct.mbedtls_ecp_point, %struct.mbedtls_mpi, i64, i64, i32, ptr, ptr, ptr, ptr, ptr, i64 }
%struct.mbedtls_ecp_point = type { %struct.mbedtls_mpi, %struct.mbedtls_mpi, %struct.mbedtls_mpi }
%struct.mbedtls_mpi = type { ptr, i16, i16 }

; Function Attrs: nounwind uwtable
define internal i32 @ecp_safe_invert_jac(ptr noundef %0, ptr noundef %1, i8 noundef zeroext %2) #0 {
  %4 = alloca i32, align 4
  %5 = alloca ptr, align 8
  %6 = alloca ptr, align 8
  %7 = alloca i8, align 1
  %8 = alloca i32, align 4
  %9 = alloca %struct.mbedtls_mpi, align 8
  %10 = alloca i8, align 1
  %11 = alloca i32, align 4
  store ptr %0, ptr %5, align 8, !tbaa !25
  store ptr %1, ptr %6, align 8, !tbaa !34
  store i8 %2, ptr %7, align 1, !tbaa !49
  call void @llvm.lifetime.start.p0(i64 4, ptr %8) #11
  store i32 -110, ptr %8, align 4, !tbaa !3
  call void @llvm.lifetime.start.p0(i64 16, ptr %9) #11
  call void @mbedtls_mpi_init(ptr noundef %9)
  br label %12

12:                                               ; preds = %3
  call void @llvm.lifetime.start.p0(i64 1, ptr %10) #11
  %13 = load ptr, ptr %6, align 8, !tbaa !34
  %14 = getelementptr inbounds nuw %struct.mbedtls_ecp_point, ptr %13, i32 0, i32 1
  %15 = call i32 @mbedtls_mpi_cmp_int(ptr noundef %14, i64 noundef 0)
  %16 = icmp ne i32 %15, 0
  %17 = zext i1 %16 to i32
  %18 = trunc i32 %17 to i8
  store i8 %18, ptr %10, align 1, !tbaa !49
  br label %19

19:                                               ; preds = %12
  %20 = load ptr, ptr %5, align 8, !tbaa !25
  %21 = getelementptr inbounds nuw %struct.mbedtls_ecp_group, ptr %20, i32 0, i32 1
  %22 = load ptr, ptr %6, align 8, !tbaa !34
  %23 = getelementptr inbounds nuw %struct.mbedtls_ecp_point, ptr %22, i32 0, i32 1
  %24 = call i32 @mbedtls_mpi_sub_mpi(ptr noundef %9, ptr noundef %21, ptr noundef %23)
  store i32 %24, ptr %8, align 4, !tbaa !3
  %25 = icmp ne i32 %24, 0
  br i1 %25, label %26, label %27

26:                                               ; preds = %19
  store i32 6, ptr %11, align 4
  br label %45

27:                                               ; preds = %19
  br label %28

28:                                               ; preds = %27
  br label %29

29:                                               ; preds = %28
  br label %30

30:                                               ; preds = %29
  %31 = load ptr, ptr %6, align 8, !tbaa !34
  %32 = getelementptr inbounds nuw %struct.mbedtls_ecp_point, ptr %31, i32 0, i32 1
  %33 = load i8, ptr %10, align 1, !tbaa !49
  %34 = zext i8 %33 to i32
  %35 = load i8, ptr %7, align 1, !tbaa !49
  %36 = zext i8 %35 to i32
  %37 = and i32 %34, %36
  %38 = trunc i32 %37 to i8
  %39 = call i32 @mbedtls_mpi_safe_cond_assign(ptr noundef %32, ptr noundef %9, i8 noundef zeroext %38)
  store i32 %39, ptr %8, align 4, !tbaa !3
  %40 = icmp ne i32 %39, 0
  br i1 %40, label %41, label %42

41:                                               ; preds = %30
  store i32 6, ptr %11, align 4
  br label %45

42:                                               ; preds = %30
  br label %43

43:                                               ; preds = %42
  br label %44

44:                                               ; preds = %43
  store i32 0, ptr %11, align 4
  br label %45

45:                                               ; preds = %41, %26, %44
  call void @llvm.lifetime.end.p0(i64 1, ptr %10) #11
  %46 = load i32, ptr %11, align 4
  switch i32 %46, label %52 [
    i32 0, label %47
    i32 6, label %50
  ]

47:                                               ; preds = %45
  br label %48

48:                                               ; preds = %47
  br label %49

49:                                               ; preds = %48
  br label %50

50:                                               ; preds = %49, %45
  call void @mbedtls_mpi_free(ptr noundef %9)
  %51 = load i32, ptr %8, align 4, !tbaa !3
  store i32 %51, ptr %4, align 4
  store i32 1, ptr %11, align 4
  br label %52

52:                                               ; preds = %50, %45
  call void @llvm.lifetime.end.p0(i64 16, ptr %9) #11
  call void @llvm.lifetime.end.p0(i64 4, ptr %8) #11
  %53 = load i32, ptr %4, align 4
  ret i32 %53
}

; Function Attrs: nounwind uwtable
define internal i32 @ecp_select_comb(ptr noundef %0, ptr noundef %1, ptr noundef %2, i8 noundef zeroext %3, i8 noundef zeroext %4) #0 {
  %6 = alloca ptr, align 8
  %7 = alloca ptr, align 8
  %8 = alloca ptr, align 8
  %9 = alloca i8, align 1
  %10 = alloca i8, align 1
  %11 = alloca i32, align 4
  %12 = alloca i8, align 1
  %13 = alloca i8, align 1
  store ptr %0, ptr %6, align 8, !tbaa !25
  store ptr %1, ptr %7, align 8, !tbaa !34
  store ptr %2, ptr %8, align 8, !tbaa !34
  store i8 %3, ptr %9, align 1, !tbaa !49
  store i8 %4, ptr %10, align 1, !tbaa !49
  call void @llvm.lifetime.start.p0(i64 4, ptr %11) #11
  store i32 -110, ptr %11, align 4, !tbaa !3
  call void @llvm.lifetime.start.p0(i64 1, ptr %12) #11
  call void @llvm.lifetime.start.p0(i64 1, ptr %13) #11
  %14 = load i8, ptr %10, align 1, !tbaa !49
  %15 = zext i8 %14 to i32
  %16 = and i32 %15, 127
  %17 = lshr i32 %16, 1
  %18 = trunc i32 %17 to i8
  store i8 %18, ptr %12, align 1, !tbaa !49
  store i8 0, ptr %13, align 1, !tbaa !49
  br label %19

19:                                               ; preds = %68, %5
  %20 = load i8, ptr %13, align 1, !tbaa !49
  %21 = zext i8 %20 to i32
  %22 = load i8, ptr %9, align 1, !tbaa !49
  %23 = zext i8 %22 to i32
  %24 = icmp slt i32 %21, %23
  br i1 %24, label %25, label %71

25:                                               ; preds = %19
  br label %26

26:                                               ; preds = %25
  %27 = load ptr, ptr %7, align 8, !tbaa !34
  %28 = getelementptr inbounds nuw %struct.mbedtls_ecp_point, ptr %27, i32 0, i32 0
  %29 = load ptr, ptr %8, align 8, !tbaa !34
  %30 = load i8, ptr %13, align 1, !tbaa !49
  %31 = zext i8 %30 to i64
  %32 = getelementptr inbounds nuw %struct.mbedtls_ecp_point, ptr %29, i64 %31
  %33 = getelementptr inbounds nuw %struct.mbedtls_ecp_point, ptr %32, i32 0, i32 0
  %34 = load i8, ptr %13, align 1, !tbaa !49
  %35 = zext i8 %34 to i32
  %36 = load i8, ptr %12, align 1, !tbaa !49
  %37 = zext i8 %36 to i32
  %38 = icmp eq i32 %35, %37
  %39 = zext i1 %38 to i32
  %40 = trunc i32 %39 to i8
  %41 = call i32 @mbedtls_mpi_safe_cond_assign(ptr noundef %28, ptr noundef %33, i8 noundef zeroext %40)
  store i32 %41, ptr %11, align 4, !tbaa !3
  %42 = icmp ne i32 %41, 0
  br i1 %42, label %43, label %44

43:                                               ; preds = %26
  br label %94

44:                                               ; preds = %26
  br label %45

45:                                               ; preds = %44
  br label %46

46:                                               ; preds = %45
  br label %47

47:                                               ; preds = %46
  %48 = load ptr, ptr %7, align 8, !tbaa !34
  %49 = getelementptr inbounds nuw %struct.mbedtls_ecp_point, ptr %48, i32 0, i32 1
  %50 = load ptr, ptr %8, align 8, !tbaa !34
  %51 = load i8, ptr %13, align 1, !tbaa !49
  %52 = zext i8 %51 to i64
  %53 = getelementptr inbounds nuw %struct.mbedtls_ecp_point, ptr %50, i64 %52
  %54 = getelementptr inbounds nuw %struct.mbedtls_ecp_point, ptr %53, i32 0, i32 1
  %55 = load i8, ptr %13, align 1, !tbaa !49
  %56 = zext i8 %55 to i32
  %57 = load i8, ptr %12, align 1, !tbaa !49
  %58 = zext i8 %57 to i32
  %59 = icmp eq i32 %56, %58
  %60 = zext i1 %59 to i32
  %61 = trunc i32 %60 to i8
  %62 = call i32 @mbedtls_mpi_safe_cond_assign(ptr noundef %49, ptr noundef %54, i8 noundef zeroext %61)
  store i32 %62, ptr %11, align 4, !tbaa !3
  %63 = icmp ne i32 %62, 0
  br i1 %63, label %64, label %65

64:                                               ; preds = %47
  br label %94

65:                                               ; preds = %47
  br label %66

66:                                               ; preds = %65
  br label %67

67:                                               ; preds = %66
  br label %68

68:                                               ; preds = %67
  %69 = load i8, ptr %13, align 1, !tbaa !49
  %70 = add i8 %69, 1
  store i8 %70, ptr %13, align 1, !tbaa !49
  br label %19, !llvm.loop !92

71:                                               ; preds = %19
  br label %72

72:                                               ; preds = %71
  %73 = load ptr, ptr %6, align 8, !tbaa !25
  %74 = load ptr, ptr %7, align 8, !tbaa !34
  %75 = load i8, ptr %10, align 1, !tbaa !49
  %76 = zext i8 %75 to i32
  %77 = ashr i32 %76, 7
  %78 = trunc i32 %77 to i8
  %79 = call i32 @ecp_safe_invert_jac(ptr noundef %73, ptr noundef %74, i8 noundef zeroext %78)
  store i32 %79, ptr %11, align 4, !tbaa !3
  %80 = icmp ne i32 %79, 0
  br i1 %80, label %81, label %82

81:                                               ; preds = %72
  br label %94

82:                                               ; preds = %72
  br label %83

83:                                               ; preds = %82
  br label %84

84:                                               ; preds = %83
  br label %85

85:                                               ; preds = %84
  %86 = load ptr, ptr %7, align 8, !tbaa !34
  %87 = getelementptr inbounds nuw %struct.mbedtls_ecp_point, ptr %86, i32 0, i32 2
  %88 = call i32 @mbedtls_mpi_lset(ptr noundef %87, i64 noundef 1)
  store i32 %88, ptr %11, align 4, !tbaa !3
  %89 = icmp ne i32 %88, 0
  br i1 %89, label %90, label %91

90:                                               ; preds = %85
  br label %94

91:                                               ; preds = %85
  br label %92

92:                                               ; preds = %91
  br label %93

93:                                               ; preds = %92
  br label %94

94:                                               ; preds = %93, %90, %81, %64, %43
  %95 = load i32, ptr %11, align 4, !tbaa !3
  call void @llvm.lifetime.end.p0(i64 1, ptr %13) #11
  call void @llvm.lifetime.end.p0(i64 1, ptr %12) #11
  call void @llvm.lifetime.end.p0(i64 4, ptr %11) #11
  ret i32 %95
}