; Function Attrs: nounwind uwtable
define internal fastcc i32 @ecp_select_comb(ptr noundef %0, ptr noundef %1, ptr noundef nonnull %2, i8 noundef zeroext range(i8 2, 33) %3, i8 noundef zeroext %4) unnamed_addr #7 {
  %6 = alloca %struct.mbedtls_mpi, align 8
  %7 = lshr i8 %4, 1
  %8 = and i8 %7, 63
  %9 = getelementptr inbounds nuw i8, ptr %1, i64 16
  %10 = zext nneg i8 %8 to i64
  %wide.trip.count = zext nneg i8 %3 to i64
  br label %12

11:                                               ; preds = %17
  %indvars.iv.next = add nuw nsw i64 %indvars.iv, 1
  %exitcond.not = icmp eq i64 %indvars.iv.next, %wide.trip.count
  br i1 %exitcond.not, label %20, label %12, !llvm.loop !75

12:                                               ; preds = %5, %11
  %indvars.iv = phi i64 [ 0, %5 ], [ %indvars.iv.next, %11 ]
  %13 = getelementptr inbounds nuw %struct.mbedtls_ecp_point, ptr %2, i64 %indvars.iv
  %14 = icmp eq i64 %indvars.iv, %10
  %15 = zext i1 %14 to i8
  %16 = tail call i32 @mbedtls_mpi_safe_cond_assign(ptr noundef %1, ptr noundef nonnull %13, i8 noundef zeroext %15) #21
  %.not23 = icmp eq i32 %16, 0
  br i1 %.not23, label %17, label %.loopexit

17:                                               ; preds = %12
  %18 = getelementptr inbounds nuw i8, ptr %13, i64 16
  %19 = tail call i32 @mbedtls_mpi_safe_cond_assign(ptr noundef nonnull %9, ptr noundef nonnull %18, i8 noundef zeroext %15) #21
  %.not24 = icmp eq i32 %19, 0
  br i1 %.not24, label %11, label %.loopexit

20:                                               ; preds = %11
  call void @llvm.lifetime.start.p0(i64 16, ptr nonnull %6) #21
  call void @mbedtls_mpi_init(ptr noundef nonnull %6) #21
  %21 = call i32 @mbedtls_mpi_cmp_int(ptr noundef nonnull %9, i64 noundef 0) #21
  %22 = getelementptr inbounds nuw i8, ptr %0, i64 8
  %23 = call i32 @mbedtls_mpi_sub_mpi(ptr noundef nonnull %6, ptr noundef nonnull %22, ptr noundef nonnull %9) #21
  %.not.i = icmp eq i32 %23, 0
  br i1 %.not.i, label %ecp_safe_invert_jac.exit, label %ecp_safe_invert_jac.exit.thread

ecp_safe_invert_jac.exit.thread:                  ; preds = %20
  call void @mbedtls_mpi_free(ptr noundef nonnull %6) #21
  call void @llvm.lifetime.end.p0(i64 16, ptr nonnull %6) #21
  br label %.loopexit

ecp_safe_invert_jac.exit:                         ; preds = %20
  %24 = lshr i8 %4, 7
  %.not12.i = icmp eq i32 %21, 0
  %25 = select i1 %.not12.i, i8 0, i8 %24
  %26 = call i32 @mbedtls_mpi_safe_cond_assign(ptr noundef nonnull %9, ptr noundef nonnull %6, i8 noundef zeroext %25) #21
  call void @mbedtls_mpi_free(ptr noundef nonnull %6) #21
  call void @llvm.lifetime.end.p0(i64 16, ptr nonnull %6) #21
  %.not = icmp eq i32 %26, 0
  br i1 %.not, label %27, label %.loopexit

27:                                               ; preds = %ecp_safe_invert_jac.exit
  %28 = getelementptr inbounds nuw i8, ptr %1, i64 32
  %29 = call i32 @mbedtls_mpi_lset(ptr noundef nonnull %28, i64 noundef 1) #21
  br label %.loopexit

.loopexit:                                        ; preds = %17, %12, %ecp_safe_invert_jac.exit.thread, %27, %ecp_safe_invert_jac.exit
  %.018 = phi i32 [ %26, %ecp_safe_invert_jac.exit ], [ %29, %27 ], [ %23, %ecp_safe_invert_jac.exit.thread ], [ %19, %17 ], [ %16, %12 ]
  ret i32 %.018
}